; Function Attrs: nounwind uwtable
define internal range(i32 0, 2) i32 @lj_cf_package_loader_croot(ptr noundef %0) #0 {
  %2 = tail call ptr @luaL_checklstring(ptr noundef %0, i32 noundef 1, ptr noundef null) #7
  %3 = tail call ptr @strchr(ptr noundef nonnull dereferenceable(1) %2, i32 noundef 46) #8
  %4 = icmp eq ptr %3, null
  br i1 %4, label %23, label %5

5:                                                ; preds = %1
  %6 = ptrtoint ptr %3 to i64
  %7 = ptrtoint ptr %2 to i64
  %8 = sub i64 %6, %7
  tail call void @lua_pushlstring(ptr noundef %0, ptr noundef nonnull %2, i64 noundef %8) #7
  %9 = tail call ptr @lua_tolstring(ptr noundef %0, i32 noundef -1, ptr noundef null) #7
  tail call void @lua_getfield(ptr noundef %0, i32 noundef -10001, ptr noundef nonnull @.str.8) #7
  %10 = tail call ptr @lua_tolstring(ptr noundef %0, i32 noundef -1, ptr noundef null) #7
  %11 = icmp eq ptr %10, null
  br i1 %11, label %.split10.i, label %findfile.exit

.split10.i:                                       ; preds = %5
  %12 = tail call i32 (ptr, ptr, ...) @luaL_error(ptr noundef %0, ptr noundef nonnull @.str.37, ptr noundef nonnull @.str.8) #7
  br label %findfile.exit

findfile.exit:                                    ; preds = %5, %.split10.i
  %13 = tail call fastcc ptr @searchpath(ptr noundef %0, ptr noundef %9, ptr noundef %10, ptr noundef nonnull @.str.27, ptr noundef nonnull @.str.29)
  %14 = icmp eq ptr %13, null
  br i1 %14, label %23, label %15

15:                                               ; preds = %findfile.exit
  %16 = tail call fastcc i32 @ll_loadfunc(ptr noundef %0, ptr noundef nonnull %13, ptr noundef nonnull %2, i32 noundef 0)
  switch i32 %16, label %17 [
    i32 0, label %23
    i32 2, label %21
  ]

17:                                               ; preds = %15
  %18 = tail call ptr @lua_tolstring(ptr noundef %0, i32 noundef 1, ptr noundef null) #7
  %19 = tail call ptr @lua_tolstring(ptr noundef %0, i32 noundef -1, ptr noundef null) #7
  %20 = tail call i32 (ptr, ptr, ...) @luaL_error(ptr noundef %0, ptr noundef nonnull @.str.38, ptr noundef %18, ptr noundef nonnull %13, ptr noundef %19) #7
  br label %21

21:                                               ; preds = %15, %17
  %22 = tail call ptr (ptr, ptr, ...) @lua_pushfstring(ptr noundef %0, ptr noundef nonnull @.str.39, ptr noundef nonnull %2, ptr noundef nonnull %13) #7
  br label %23

23:                                               ; preds = %15, %findfile.exit, %1, %21
  %.0 = phi i32 [ 1, %21 ], [ 0, %1 ], [ 1, %findfile.exit ], [ 1, %15 ]
  ret i32 %.0
}